target datalayout = "e-m:e-p270:32:32-p271:32:32-p272:64:64-i64:64-i128:128-f80:128-n8:16:32:64-S128"
target triple = "x86_64-pc-linux-gnu"

%"class.cv::detail::DisjointSets" = type { %"class.std::vector", %"class.std::vector", %"class.std::vector" }
%"class.std::vector" = type { %"struct.std::_Vector_base" }
%"struct.std::_Vector_base" = type { %"struct.std::_Vector_base<int, std::allocator<int>>::_Vector_impl" }
%"struct.std::_Vector_base<int, std::allocator<int>>::_Vector_impl" = type { %"struct.std::_Vector_base<int, std::allocator<int>>::_Vector_impl_data" }
%"struct.std::_Vector_base<int, std::allocator<int>>::_Vector_impl_data" = type { ptr, ptr, ptr }

; Function Attrs: mustprogress nounwind uwtable
define linkonce_odr hidden noundef nonnull align 4 dereferenceable(4) ptr @_ZNSt6vectorIiSaIiEEixEm(ptr noundef nonnull align 8 dereferenceable(24) %0, i64 noundef %1) #6 comdat align 2 {
  %3 = alloca ptr, align 8
  %4 = alloca i64, align 8
  store ptr %0, ptr %3, align 8, !tbaa !12
  store i64 %1, ptr %4, align 8, !tbaa !14
  %5 = load ptr, ptr %3, align 8
  %6 = getelementptr inbounds nuw %"struct.std::_Vector_base", ptr %5, i32 0, i32 0
  %7 = getelementptr inbounds nuw %"struct.std::_Vector_base<int, std::allocator<int>>::_Vector_impl_data", ptr %6, i32 0, i32 0
  %8 = load ptr, ptr %7, align 8, !tbaa !18
  %9 = load i64, ptr %4, align 8, !tbaa !14
  %10 = getelementptr inbounds nuw i32, ptr %8, i64 %9
  ret ptr %10
}

; Function Attrs: mustprogress nounwind uwtable
define noundef i32 @_ZN2cv6detail12DisjointSets13findSetByElemEi(ptr noundef nonnull align 8 dereferenceable(72) %0, i32 noundef %1) #6 align 2 {
  %3 = alloca ptr, align 8
  %4 = alloca i32, align 4
  %5 = alloca i32, align 4
  %6 = alloca i32, align 4
  store ptr %0, ptr %3, align 8, !tbaa !3
  store i32 %1, ptr %4, align 4, !tbaa !8
  %7 = load ptr, ptr %3, align 8
  call void @llvm.lifetime.start.p0(i64 4, ptr %5) #3
  %8 = load i32, ptr %4, align 4, !tbaa !8
  store i32 %8, ptr %5, align 4, !tbaa !8
  br label %9

9:                                                ; preds = %17, %2
  %10 = load i32, ptr %5, align 4, !tbaa !8
  %11 = getelementptr inbounds nuw %"class.cv::detail::DisjointSets", ptr %7, i32 0, i32 0
  %12 = load i32, ptr %5, align 4, !tbaa !8
  %13 = sext i32 %12 to i64
  %14 = call noundef nonnull align 4 dereferenceable(4) ptr @_ZNSt6vectorIiSaIiEEixEm(ptr noundef nonnull align 8 dereferenceable(24) %11, i64 noundef %13) #3
  %15 = load i32, ptr %14, align 4, !tbaa !8
  %16 = icmp ne i32 %10, %15
  br i1 %16, label %17, label %23

17:                                               ; preds = %9
  %18 = getelementptr inbounds nuw %"class.cv::detail::DisjointSets", ptr %7, i32 0, i32 0
  %19 = load i32, ptr %5, align 4, !tbaa !8
  %20 = sext i32 %19 to i64
  %21 = call noundef nonnull align 4 dereferenceable(4) ptr @_ZNSt6vectorIiSaIiEEixEm(ptr noundef nonnull align 8 dereferenceable(24) %18, i64 noundef %20) #3
  %22 = load i32, ptr %21, align 4, !tbaa !8
  store i32 %22, ptr %5, align 4, !tbaa !8
  br label %9, !llvm.loop !20

23:                                               ; preds = %9
  call void @llvm.lifetime.start.p0(i64 4, ptr %6) #3
  br label %24

24:                                               ; preds = %32, %23
  %25 = load i32, ptr %4, align 4, !tbaa !8
  %26 = getelementptr inbounds nuw %"class.cv::detail::DisjointSets", ptr %7, i32 0, i32 0
  %27 = load i32, ptr %4, align 4, !tbaa !8
  %28 = sext i32 %27 to i64
  %29 = call noundef nonnull align 4 dereferenceable(4) ptr @_ZNSt6vectorIiSaIiEEixEm(ptr noundef nonnull align 8 dereferenceable(24) %26, i64 noundef %28) #3
  %30 = load i32, ptr %29, align 4, !tbaa !8
  %31 = icmp ne i32 %25, %30
  br i1 %31, label %32, label %44

32:                                               ; preds = %24
  %33 = getelementptr inbounds nuw %"class.cv::detail::DisjointSets", ptr %7, i32 0, i32 0
  %34 = load i32, ptr %4, align 4, !tbaa !8
  %35 = sext i32 %34 to i64
  %36 = call noundef nonnull align 4 dereferenceable(4) ptr @_ZNSt6vectorIiSaIiEEixEm(ptr noundef nonnull align 8 dereferenceable(24) %33, i64 noundef %35) #3
  %37 = load i32, ptr %36, align 4, !tbaa !8
  store i32 %37, ptr %6, align 4, !tbaa !8
  %38 = load i32, ptr %5, align 4, !tbaa !8
  %39 = getelementptr inbounds nuw %"class.cv::detail::DisjointSets", ptr %7, i32 0, i32 0
  %40 = load i32, ptr %4, align 4, !tbaa !8
  %41 = sext i32 %40 to i64
  %42 = call noundef nonnull align 4 dereferenceable(4) ptr @_ZNSt6vectorIiSaIiEEixEm(ptr noundef nonnull align 8 dereferenceable(24) %39, i64 noundef %41) #3
  store i32 %38, ptr %42, align 4, !tbaa !8
  %43 = load i32, ptr %6, align 4, !tbaa !8
  store i32 %43, ptr %4, align 4, !tbaa !8
  br label %24, !llvm.loop !21

44:                                               ; preds = %24
  %45 = load i32, ptr %5, align 4, !tbaa !8
  call void @llvm.lifetime.end.p0(i64 4, ptr %6) #3
  call void @llvm.lifetime.end.p0(i64 4, ptr %5) #3
  ret i32 %45
}