; Function Attrs: mustprogress nofree norecurse nosync nounwind memory(readwrite, inaccessiblemem: none) uwtable
define noundef i32 @_ZN2cv6detail12DisjointSets13findSetByElemEi(ptr noundef nonnull readonly align 8 captures(none) dereferenceable(72) %0, i32 noundef %1) local_unnamed_addr #5 align 2 {
  %3 = load ptr, ptr %0, align 8, !tbaa !11
  br label %4

4:                                                ; preds = %4, %2
  %.011 = phi i32 [ %1, %2 ], [ %7, %4 ]
  %5 = sext i32 %.011 to i64
  %6 = getelementptr inbounds nuw i32, ptr %3, i64 %5
  %7 = load i32, ptr %6, align 4, !tbaa !3
  %.not = icmp eq i32 %.011, %7
  br i1 %.not, label %.preheader, label %4, !llvm.loop !14

.preheader:                                       ; preds = %4
  %8 = sext i32 %1 to i64
  %9 = getelementptr inbounds nuw i32, ptr %3, i64 %8
  %10 = load i32, ptr %9, align 4, !tbaa !3
  %.not1213 = icmp eq i32 %1, %10
  br i1 %.not1213, label %._crit_edge, label %.lr.ph

.lr.ph:                                           ; preds = %.preheader, %.lr.ph
  %11 = phi i32 [ %15, %.lr.ph ], [ %10, %.preheader ]
  %12 = phi ptr [ %14, %.lr.ph ], [ %9, %.preheader ]
  store i32 %.011, ptr %12, align 4, !tbaa !3
  %13 = sext i32 %11 to i64
  %14 = getelementptr inbounds nuw i32, ptr %3, i64 %13
  %15 = load i32, ptr %14, align 4, !tbaa !3
  %.not12 = icmp eq i32 %11, %15
  br i1 %.not12, label %._crit_edge, label %.lr.ph, !llvm.loop !15

._crit_edge:                                      ; preds = %.lr.ph, %.preheader
  ret i32 %.011
}